Certificate:
    Data:
        Version: 3 (0x2)
        Serial Number: 1 (0x1)
        Signature Algorithm: sha256WithRSAEncryption
        Issuer: CN=Compose
        Validity
            Not Before: Jan 27 16:25:19 2017 GMT
            Not After : Jan 25 16:25:19 2027 GMT
        Subject: CN=localhost
        Subject Public Key Info:
            Public Key Algorithm: rsaEncryption
            RSA Public Key: (2048 bit)
                Modulus (2048 bit):
                    00:c6:cd:f3:ee:3a:0a:c5:ce:f9:b4:05:18:c3:96:
                    84:c6:14:e0:ae:e3:cd:1a:7a:f3:d1:34:ed:66:31:
                    70:6d:bd:e1:d5:df:93:31:79:64:dd:75:e7:89:fe:
                    97:c4:df:98:8f:3e:5e:f2:65:91:f9:49:0d:06:e7:
                    61:be:11:3d:7a:c5:d2:bf:b7:fd:51:fa:a8:a2:f3:
                    58:ab:fa:21:86:54:31:05:9c:a8:c7:29:cd:fb:ce:
                    74:cc:19:e1:a8:7c:01:e6:5a:37:ac:97:e1:ca:25:
                    45:5a:2d:6a:28:91:2a:cf:39:b9:14:b8:99:ae:97:
                    15:2b:3d:70:3c:bc:08:8e:b5:da:08:31:e9:07:64:
                    83:83:98:bc:d3:b7:e5:8b:2e:38:34:90:b6:8c:df:
                    a9:ef:61:97:cd:15:a2:f1:d8:ef:14:b6:a4:f4:b4:
                    d4:4c:47:a6:97:b0:1b:6c:75:83:6a:0e:9b:3b:5d:
                    01:ba:8e:cf:e9:c3:9f:99:97:de:a6:10:f2:5b:e0:
                    5e:70:5c:08:ef:c7:4a:af:6a:f0:0d:ab:73:a4:fa:
                    ca:42:f3:24:ad:7b:a4:87:80:de:71:c6:21:60:1e:
                    0e:8a:73:1f:6b:57:3f:c9:fe:bc:bc:23:67:eb:15:
                    ca:72:da:ba:6d:bf:08:28:48:1f:91:f2:fa:1f:e2:
                    86:d7
                Exponent: 65537 (0x10001)
        X509v3 extensions:
            X509v3 Basic Constraints: 
                CA:FALSE
            X509v3 Subject Key Identifier: 
                EA:A6:2C:0E:E3:20:7E:9E:AC:E9:94:6B:F2:CA:F2:F5:E8:67:F3:96
            X509v3 Authority Key Identifier: 
                keyid:7E:BC:DD:07:95:99:E6:B4:D2:12:30:52:B9:FE:85:40:C8:C2:A6:D7
                DirName:/CN=Compose
                serial:AB:BA:44:3C:E3:F2:C8:B9

            X509v3 Extended Key Usage: 
                TLS Web Server Authentication
            X509v3 Key Usage: 
                Digital Signature, Key Encipherment
    Signature Algorithm: sha256WithRSAEncryption
        7b:60:78:a8:c5:bf:47:cb:36:bb:f9:82:62:b5:82:db:a5:ca:
        32:d7:82:ab:e4:f7:0e:ce:49:7c:4e:ec:05:7b:d4:12:78:1d:
        ee:5c:22:a8:89:55:e0:e3:ea:43:bd:dd:83:56:b6:95:37:70:
        b1:d8:8e:80:f3:a6:e3:0b:b5:55:b6:ce:b8:12:88:e9:f0:a7:
        1f:37:b0:e3:62:90:be:7d:09:24:d1:5b:12:6c:f0:36:6d:be:
        99:54:15:ff:fa:ca:2a:61:e2:a0:20:7e:e1:c6:30:e1:5c:af:
        e9:9b:8e:28:aa:46:38:3e:cd:88:e6:da:3d:94:a3:ae:a1:10:
        d9:c3:db:15:af:ec:f5:07:ed:c4:82:ab:d2:00:bc:59:1c:90:
        8c:83:6e:7b:7b:1b:d2:cf:e7:5c:b9:c4:12:75:37:6c:80:bc:
        d1:97:a6:ad:e1:af:01:23:13:48:61:77:d2:d6:d1:2e:9e:5a:
        36:96:5c:3c:18:3c:88:8f:28:cd:1a:a5:78:af:95:74:6b:34:
        e3:0f:8a:73:a2:ea:18:b4:fa:e3:ca:ae:df:d4:22:e2:d7:e0:
        65:3b:56:83:3c:48:66:a9:f2:13:87:8a:0d:4b:ec:e9:2a:b6:
        e3:0c:05:dc:07:5c:db:bd:b6:4b:9e:74:71:25:1c:36:07:d4:
        a3:fc:8b:3a
-----BEGIN CERTIFICATE-----
MIIDNTCCAh2gAwIBAgIBATANBgkqhkiG9w0BAQsFADASMRAwDgYDVQQDDAdDb21w
b3NlMB4XDTE3MDEyNzE2MjUxOVoXDTI3MDEyNTE2MjUxOVowFDESMBAGA1UEAwwJ
bG9jYWxob3N0MIIBIjANBgkqhkiG9w0BAQEFAAOCAQ8AMIIBCgKCAQEAxs3z7joK
xc75tAUYw5aExhTgruPNGnrz0TTtZjFwbb3h1d+TMXlk3XXnif6XxN+Yjz5e8mWR
+UkNBudhvhE9esXSv7f9UfqoovNYq/ohhlQxBZyoxynN+850zBnhqHwB5lo3rJfh
yiVFWi1qKJEqzzm5FLiZrpcVKz1wPLwIjrXaCDHpB2SDg5i807fliy44NJC2jN+p
72GXzRWi8djvFLak9LTUTEeml7AbbHWDag6bO10Buo7P6cOfmZfephDyW+BecFwI
78dKr2rwDatzpPrKQvMkrXukh4DeccYhYB4OinMfa1c/yf68vCNn6xXKctq6bb8I
KEgfkfL6H+KG1wIDAQABo4GTMIGQMAkGA1UdEwQCMAAwHQYDVR0OBBYEFOqmLA7j
IH6erOmUa/LK8vXoZ/OWMEIGA1UdIwQ7MDmAFH683QeVmea00hIwUrn+hUDIwqbX
oRakFDASMRAwDgYDVQQDDAdDb21wb3NlggkAq7pEPOPyyLkwEwYDVR0lBAwwCgYI
KwYBBQUHAwEwCwYDVR0PBAQDAgWgMA0GCSqGSIb3DQEBCwUAA4IBAQB7YHioxb9H
yza7+YJitYLbpcoy14Kr5PcOzkl8TuwFe9QSeB3uXCKoiVXg4+pDvd2DVraVN3Cx
2I6A86bjC7VVts64Eojp8KcfN7DjYpC+fQkk0VsSbPA2bb6ZVBX/+soqYeKgIH7h
xjDhXK/pm44oqkY4Ps2I5to9lKOuoRDZw9sVr+z1B+3EgqvSALxZHJCMg257exvS
z+dcucQSdTdsgLzRl6at4a8BIxNIYXfS1tEunlo2llw8GDyIjyjNGqV4r5V0azTj
D4pzouoYtPrjyq7f1CLi1+BlO1aDPEhmqfITh4oNS+zpKrbjDAXcB1zbvbZLnnRx
JRw2B9Sj/Is6
-----END CERTIFICATE-----
