-----BEGIN RSA PRIVATE KEY-----
MIIEowIBAAKCAQEAtxLuapy/jX4xfxDbCzeZXfUd6zoeQSH/g6grVhzvDRvMAJ+a
I3cjkk0OWH/CDGSrthkFpsg168NEChAE1qMEbrwYIsN7r1lwTRCeNIEgu53TfZhT
tptRvs5rNlEXK9Nn4XrjNJSIAgFkcOptW2mOMsxYDaB6ioZBT00dKpEEnIHFo2w4
aS4VEmEWUnn7gkvthC9rj0+RmprYTNp9nIZlT7lI4RsO3KJ5078JZTQI6VYCHTvU
cpGFqiRopeaeL37MnO957YVAVHQ5HNHfXbbaGELA1lmhKFckCqTkViL7AVB6WSsM
qcpUS/udySQs+TTIx80CcZiGLtoOIwZukURLvQIDAQABAoIBAQCKgpg/sTh8JO3t
5SLU6cvvenSYc/BP9xkK00F2dY2nrVA7aIWGL62KEyK3cnGuTrxbmbLc7L1fEu13
b4c5nTzNSyI3qw75LAH7TIdl0gyh5lcMvyMXFYxTgHk9Lz0Iu3ns7rzYG0iLu+Hy
TGtQrhwX8uLr7G7KP6lKBl36xp1misDV82XhY1+r7NinLPfsZANQOoFPEB1LVCkA
mlGAwCGqyf/M5NZriVeWf0IZfpBDjaFhR+anQvJkEunZfAkpxUNPF65SHKBy3/2l
hVf5g3FhjoNSYa6l84/ow51DpSGnJMPLjM8/Kfmi4WHQndZ4fSnFRqXBgGRS6KQi
/xE3tCVBAoGBAOE2F2SbjO0+sA1hNWtTJ+X+Zu3vTQ2pPiBKQsfMUUgoR8DFn5Fa
LUdIQQp0jnxkM7zYQ/2xZr88Z1tYcLYmqIv741lGysyKMZVgT85QqqTCC1TVUp6K
Fcm1lUDApxb+WzvTNE7rPfZDr5oPOsUh7xryho0nb4XJdinGovopXLMPAoGBANAa
H7t98sQfoCjO38l3HNgVh/dr4JUmDuFfLaGuvjrA80DIG5Drnjy019QFivtJFthm
C7TOqkVcHaFvoS3OxanZKeEoh80CLuTNbVhY0n4BYR0G3d3RiwIgbAuhsoyh3Hz5
CF0IL7gXMSSX9kF6fEVSgXclx/2SA4kaNBlWcmRzAoGAYyL9fzMeAR10QB+HdVwg
lxS62IhboeTbTTmDVhIxwZLBqzETQdexUMyUnPab9lPhloKYw2dBNHNxh/tRek1g
KmbSOG16PjmjA/9mggpuY6JrfId/G/zrBGTjc6KaqvuCy734K7lQCETZWvbTRw3e
BD24TxCJ/hml41PmUDq+7K8CgYAmqoP04V0HJd0rV+zq0Q/x8mY2CbxL2itvorCm
1wIPhqRsCAJfNfhLzUpA4drF//mXsbZBHRk0E/6JbWVkToQZn/kRFefNprcx2h2U
CcTqlrUFoK3+th1/AqkwrBWx3a1LJzZvmsLLELwX0Yh2+Bw5ATB/A+0Z51Ry2ASQ
JKjSkwKBgF1LG2Z8eHa0bar0xohHfMt4Lke4orpxOwoKhxEu+tsvLtua0y8AlTgv
zq4WN1OLwEhYBgR/4t1yHDqvwqPVVobFnVi1OGg3NcUyPGfBkKrCDCeLUnQPxvGM
6lYpIZWPiqX+Fczx2vJojJ+ZL9wrkKzxHWDz+nWIONnDoidX3KMo
-----END RSA PRIVATE KEY-----
Certificate:
    Data:
        Version: 3 (0x2)
        Serial Number: 1 (0x1)
        Signature Algorithm: sha256WithRSAEncryption
        Issuer: CN=Compose
        Validity
            Not Before: Mar  8 21:18:31 2017 GMT
            Not After : Mar  6 21:18:31 2027 GMT
        Subject: CN=localhost
        Subject Public Key Info:
            Public Key Algorithm: rsaEncryption
            RSA Public Key: (2048 bit)
                Modulus (2048 bit):
                    00:b7:12:ee:6a:9c:bf:8d:7e:31:7f:10:db:0b:37:
                    99:5d:f5:1d:eb:3a:1e:41:21:ff:83:a8:2b:56:1c:
                    ef:0d:1b:cc:00:9f:9a:23:77:23:92:4d:0e:58:7f:
                    c2:0c:64:ab:b6:19:05:a6:c8:35:eb:c3:44:0a:10:
                    04:d6:a3:04:6e:bc:18:22:c3:7b:af:59:70:4d:10:
                    9e:34:81:20:bb:9d:d3:7d:98:53:b6:9b:51:be:ce:
                    6b:36:51:17:2b:d3:67:e1:7a:e3:34:94:88:02:01:
                    64:70:ea:6d:5b:69:8e:32:cc:58:0d:a0:7a:8a:86:
                    41:4f:4d:1d:2a:91:04:9c:81:c5:a3:6c:38:69:2e:
                    15:12:61:16:52:79:fb:82:4b:ed:84:2f:6b:8f:4f:
                    91:9a:9a:d8:4c:da:7d:9c:86:65:4f:b9:48:e1:1b:
                    0e:dc:a2:79:d3:bf:09:65:34:08:e9:56:02:1d:3b:
                    d4:72:91:85:aa:24:68:a5:e6:9e:2f:7e:cc:9c:ef:
                    79:ed:85:40:54:74:39:1c:d1:df:5d:b6:da:18:42:
                    c0:d6:59:a1:28:57:24:0a:a4:e4:56:22:fb:01:50:
                    7a:59:2b:0c:a9:ca:54:4b:fb:9d:c9:24:2c:f9:34:
                    c8:c7:cd:02:71:98:86:2e:da:0e:23:06:6e:91:44:
                    4b:bd
                Exponent: 65537 (0x10001)
        X509v3 extensions:
            X509v3 Basic Constraints:
                CA:FALSE
            X509v3 Subject Key Identifier:
                E8:AF:57:B0:96:61:91:28:2A:C1:8F:23:9D:BB:89:0F:06:66:19:81
            X509v3 Authority Key Identifier:
                keyid:7E:1D:0E:E1:C7:CB:C0:71:60:52:44:8B:42:2E:CC:E7:43:7B:85:A5
                DirName:/CN=Compose
                serial:F2:33:A5:50:26:C4:41:8F

            X509v3 Extended Key Usage:
                TLS Web Server Authentication
            X509v3 Key Usage:
                Digital Signature, Key Encipherment
    Signature Algorithm: sha256WithRSAEncryption
        8a:33:b6:e8:0a:42:c4:3d:95:07:09:47:98:45:c2:ab:cd:a6:
        fc:6b:8b:bf:73:f1:22:c6:80:38:34:41:9e:95:05:36:62:e1:
        f6:26:61:74:77:28:7c:ab:3d:63:40:7a:4a:93:10:f1:71:7d:
        2c:e1:b2:e1:7f:34:4b:07:62:20:9c:5a:00:5d:31:19:cc:1c:
        f6:e4:27:fc:a1:2d:4e:c7:47:e4:19:ad:84:6a:3e:3d:ac:51:
        c0:12:8a:9c:b0:89:e5:9e:72:9f:b5:76:8d:00:e6:59:2c:1d:
        56:e5:16:14:37:20:7f:76:b5:9f:32:a0:03:91:d3:d2:95:6b:
        36:f6:31:33:48:50:68:46:95:e4:e7:29:29:c2:9a:c2:08:bd:
        13:f1:a7:c1:52:4c:e8:ac:45:bb:06:25:d7:6f:fa:81:27:49:
        d5:13:48:08:d4:e2:d9:9b:6b:1d:02:0b:f8:9d:b9:ce:f1:3b:
        74:26:67:28:34:ba:e6:90:f6:64:f7:20:91:6c:2a:ba:81:3e:
        72:ef:9a:1f:05:1f:25:48:67:48:64:e3:98:24:19:13:6e:04:
        1b:bc:03:e9:f6:51:cb:f4:b8:21:bc:6c:1b:36:4a:d8:56:6f:
        dc:c0:35:d1:f5:2c:1c:24:e3:8c:a6:4e:3c:31:1c:52:58:2b:
        0c:df:cd:0f
-----BEGIN CERTIFICATE-----
MIIDNTCCAh2gAwIBAgIBATANBgkqhkiG9w0BAQsFADASMRAwDgYDVQQDDAdDb21w
b3NlMB4XDTE3MDMwODIxMTgzMVoXDTI3MDMwNjIxMTgzMVowFDESMBAGA1UEAwwJ
bG9jYWxob3N0MIIBIjANBgkqhkiG9w0BAQEFAAOCAQ8AMIIBCgKCAQEAtxLuapy/
jX4xfxDbCzeZXfUd6zoeQSH/g6grVhzvDRvMAJ+aI3cjkk0OWH/CDGSrthkFpsg1
68NEChAE1qMEbrwYIsN7r1lwTRCeNIEgu53TfZhTtptRvs5rNlEXK9Nn4XrjNJSI
AgFkcOptW2mOMsxYDaB6ioZBT00dKpEEnIHFo2w4aS4VEmEWUnn7gkvthC9rj0+R
mprYTNp9nIZlT7lI4RsO3KJ5078JZTQI6VYCHTvUcpGFqiRopeaeL37MnO957YVA
VHQ5HNHfXbbaGELA1lmhKFckCqTkViL7AVB6WSsMqcpUS/udySQs+TTIx80CcZiG
LtoOIwZukURLvQIDAQABo4GTMIGQMAkGA1UdEwQCMAAwHQYDVR0OBBYEFOivV7CW
YZEoKsGPI527iQ8GZhmBMEIGA1UdIwQ7MDmAFH4dDuHHy8BxYFJEi0IuzOdDe4Wl
oRakFDASMRAwDgYDVQQDDAdDb21wb3NlggkA8jOlUCbEQY8wEwYDVR0lBAwwCgYI
KwYBBQUHAwEwCwYDVR0PBAQDAgWgMA0GCSqGSIb3DQEBCwUAA4IBAQCKM7boCkLE
PZUHCUeYRcKrzab8a4u/c/EixoA4NEGelQU2YuH2JmF0dyh8qz1jQHpKkxDxcX0s
4bLhfzRLB2IgnFoAXTEZzBz25Cf8oS1Ox0fkGa2Eaj49rFHAEoqcsInlnnKftXaN
AOZZLB1W5RYUNyB/drWfMqADkdPSlWs29jEzSFBoRpXk5ykpwprCCL0T8afBUkzo
rEW7BiXXb/qBJ0nVE0gI1OLZm2sdAgv4nbnO8Tt0JmcoNLrmkPZk9yCRbCq6gT5y
75ofBR8lSGdIZOOYJBkTbgQbvAPp9lHL9LghvGwbNkrYVm/cwDXR9SwcJOOMpk48
MRxSWCsM380P
-----END CERTIFICATE-----
