-----BEGIN RSA PRIVATE KEY-----
MIIEpAIBAAKCAQEArdmHtpUvt8R8VUX5jvPAIMtkdtZQUn44yJrshjlSSQMjhJA8
lzRWzTQCvN8xm5NXc3LaK9L32vFiDf6VSS7i6COk69u2IrM/Mxk9eKziwQ1WydZS
SgzmV5bAPNDGC8v+SNEkgPEVbgYuxWwfU9aiHSrn/BlXjLHni7PiaOib8i0jV/sO
GfN3e/fPfA0ILKQG3apI0NtwuziQqtnqXIBKHjs2UVopu3P7oprXyFnlyK1yUZXA
4StFDT37yzy+jYaaKe/q6mrKE9+rDCq/cL7Je3smInalAWaYBrUfh17omhB9Els0
NfPoty3Ul8MGErUAeBQMOAdWFulqHXVJm2JCwwIDAQABAoIBADtiynQ5RAKfUOWE
MLp/U0sgj2H01Z1IVrdYDKHRJOWh99kJuFjiXSBduu2vxG9jhoT+X76Go3ob6KXl
KDPGm2Y2/tg+xlnWJymaXqBBVnghyVrLJnL7MxgKfAKKQoy3E1bmcnTFZc+etw1j
YNQvxlL2XCaGtZxvDSxwt0+k3dh8uKumO6dOFNyDwuErQgvkJopmS66j1DrjYNw9
5J7SIbu1FZ13S0BoJNuDPtSDIN1mmWgSwpGUpgO9Q23AYt872fXPeViqw0BUAiQg
HmfPPOH+Kanhi2maA1j7amEfxER7l8IIwezdaH8K9XHOFZi/Bkd1IWWCHuy0FDr7
p9nOPGkCgYEA07zk+0HqS52TTb1QegJHEtJ+joVramOZ2ApnxO98sEK/P0NG97Jv
uBbHVrzrpOP6KXmJS/KCo5agf6zHPKfWYqOO/LnZhA28U6Nh8QJ60eO+xWTLwXC3
newcfJXuCUVzM2IUYxwMY2R5PSyc8l65fGwgu1va5ommGeZzxWHEFdcCgYEA0jEP
YWuk/z3hgxKFTzOWzJAhPZ4KKVNnpvDZgrewVb1aw9SUbY8UGT1nAL6QTaBKI9fl
6auff6UedevB5h6meM0LErZP+rvIil/flzX/NfUsI1svZZIEPQuv+6mpEmuRA96V
VNbPaUdeMWKIL7uRf+yrpELbF5gdavYLNyhuBPUCgYEAmiU3Uk/PYRMrbPn4v4ou
8d36MomhBIfUNTqGBxIOZUeCcWzqGmN1/7/diSDqMFWkBlOrh3Xac3uyBqDjPx40
7gSCkSw/1Womg4E7STjz7x9s/8l8qKwFkNuWdYC1FVzRHEQ38Vs3DZjUxptW+v/I
63LQdXXOq+zj1pE2ESk2lmsCgYBxAAEVzcoxknIHhlB26PQ8W4wTVUB/QSCrZjZ5
iQlavubp+wIk+FPE0fbrNofbw724EVzASA0CkaGTocBnV7kFnq5CTBMpaAUDJ1HM
ODJRLtKg22fawipXK05cDLUhewTGQMaliqqNHdos0J0IlF0/mdwY/fxNbfD6zPXw
nGKxdQKBgQC0cjcE9o7yzK4HKCm9xJZXOl0CYW3D51ofMB1E/pRguUV2hoMSgazZ
eXg4t2RphsxiyS5qtXs/f41SqXh0uuoc5KrsrsnaQ1XjJoynBzooa9Wh4UK9va93
QI0IUGsy7xfEB8J+JgXxvUEctKF+rwn8AiLo3u/NGczko0zJ5taMyw==
-----END RSA PRIVATE KEY-----
Certificate:
    Data:
        Version: 3 (0x2)
        Serial Number: 1 (0x1)
        Signature Algorithm: sha256WithRSAEncryption
        Issuer: CN=RethinkDB
        Validity
            Not Before: Feb 13 22:16:44 2017 GMT
            Not After : Feb 11 22:16:44 2027 GMT
        Subject: CN=localhost
        Subject Public Key Info:
            Public Key Algorithm: rsaEncryption
            RSA Public Key: (2048 bit)
                Modulus (2048 bit):
                    00:ad:d9:87:b6:95:2f:b7:c4:7c:55:45:f9:8e:f3:
                    c0:20:cb:64:76:d6:50:52:7e:38:c8:9a:ec:86:39:
                    52:49:03:23:84:90:3c:97:34:56:cd:34:02:bc:df:
                    31:9b:93:57:73:72:da:2b:d2:f7:da:f1:62:0d:fe:
                    95:49:2e:e2:e8:23:a4:eb:db:b6:22:b3:3f:33:19:
                    3d:78:ac:e2:c1:0d:56:c9:d6:52:4a:0c:e6:57:96:
                    c0:3c:d0:c6:0b:cb:fe:48:d1:24:80:f1:15:6e:06:
                    2e:c5:6c:1f:53:d6:a2:1d:2a:e7:fc:19:57:8c:b1:
                    e7:8b:b3:e2:68:e8:9b:f2:2d:23:57:fb:0e:19:f3:
                    77:7b:f7:cf:7c:0d:08:2c:a4:06:dd:aa:48:d0:db:
                    70:bb:38:90:aa:d9:ea:5c:80:4a:1e:3b:36:51:5a:
                    29:bb:73:fb:a2:9a:d7:c8:59:e5:c8:ad:72:51:95:
                    c0:e1:2b:45:0d:3d:fb:cb:3c:be:8d:86:9a:29:ef:
                    ea:ea:6a:ca:13:df:ab:0c:2a:bf:70:be:c9:7b:7b:
                    26:22:76:a5:01:66:98:06:b5:1f:87:5e:e8:9a:10:
                    7d:12:5b:34:35:f3:e8:b7:2d:d4:97:c3:06:12:b5:
                    00:78:14:0c:38:07:56:16:e9:6a:1d:75:49:9b:62:
                    42:c3
                Exponent: 65537 (0x10001)
        X509v3 extensions:
            X509v3 Basic Constraints: 
                CA:FALSE
            X509v3 Subject Key Identifier: 
                51:42:42:94:6F:FC:97:0F:F8:C0:24:0E:DC:7E:65:04:6D:70:56:CC
            X509v3 Authority Key Identifier: 
                keyid:93:A6:68:67:F6:E0:6B:37:23:6C:7C:D3:85:DF:DD:1C:82:F7:43:F5
                DirName:/CN=RethinkDB
                serial:81:D4:E2:E3:FB:0A:39:A4

            X509v3 Extended Key Usage: 
                TLS Web Server Authentication
            X509v3 Key Usage: 
                Digital Signature, Key Encipherment
    Signature Algorithm: sha256WithRSAEncryption
        4f:e2:4b:09:45:8c:5e:8f:05:13:d8:b4:dc:0f:03:87:63:23:
        b8:43:04:da:a0:f4:45:65:d5:44:95:6a:1f:69:24:fb:03:af:
        a9:76:b8:a9:e2:e0:6f:5e:70:80:14:71:28:33:29:d5:a1:59:
        ab:f3:9b:ed:0f:63:88:82:27:59:6f:29:fd:92:ba:c3:77:f4:
        b7:10:34:e2:a5:32:dc:89:6a:a3:91:ef:94:04:5a:22:4b:25:
        84:b0:0d:48:1d:ac:ff:4e:54:a1:a5:aa:b2:f7:b3:10:cd:ba:
        8c:2c:d9:6c:d6:69:cd:b1:cb:f7:64:f1:f7:7e:2b:ca:35:54:
        e3:7e:b3:91:09:95:55:b0:e3:63:d0:f0:4b:a3:fb:ec:36:b3:
        8c:13:f7:e3:81:59:e2:69:79:c0:ce:cd:07:77:c6:84:65:d2:
        68:6f:7c:a2:8c:7b:1c:29:47:be:78:6b:99:41:25:4a:78:76:
        38:3b:3c:4a:96:30:23:29:5b:a6:31:58:4a:1d:70:ac:8f:7b:
        8f:64:fe:64:a1:bc:b8:67:e1:59:fb:34:fe:de:18:18:6d:e6:
        7b:65:a1:f6:f4:54:ad:7f:9c:f5:61:e9:81:50:57:1b:ba:1a:
        ca:07:2d:73:37:6f:a4:7b:9a:ef:46:ae:c7:b9:e3:74:10:32:
        0d:fe:ff:c7
-----BEGIN CERTIFICATE-----
MIIDOTCCAiGgAwIBAgIBATANBgkqhkiG9w0BAQsFADAUMRIwEAYDVQQDDAlSZXRo
aW5rREIwHhcNMTcwMjEzMjIxNjQ0WhcNMjcwMjExMjIxNjQ0WjAUMRIwEAYDVQQD
DAlsb2NhbGhvc3QwggEiMA0GCSqGSIb3DQEBAQUAA4IBDwAwggEKAoIBAQCt2Ye2
lS+3xHxVRfmO88Agy2R21lBSfjjImuyGOVJJAyOEkDyXNFbNNAK83zGbk1dzctor
0vfa8WIN/pVJLuLoI6Tr27Yisz8zGT14rOLBDVbJ1lJKDOZXlsA80MYLy/5I0SSA
8RVuBi7FbB9T1qIdKuf8GVeMseeLs+Jo6JvyLSNX+w4Z83d79898DQgspAbdqkjQ
23C7OJCq2epcgEoeOzZRWim7c/uimtfIWeXIrXJRlcDhK0UNPfvLPL6Nhpop7+rq
asoT36sMKr9wvsl7eyYidqUBZpgGtR+HXuiaEH0SWzQ18+i3LdSXwwYStQB4FAw4
B1YW6WoddUmbYkLDAgMBAAGjgZUwgZIwCQYDVR0TBAIwADAdBgNVHQ4EFgQUUUJC
lG/8lw/4wCQO3H5lBG1wVswwRAYDVR0jBD0wO4AUk6ZoZ/bgazcjbHzThd/dHIL3
Q/WhGKQWMBQxEjAQBgNVBAMMCVJldGhpbmtEQoIJAIHU4uP7CjmkMBMGA1UdJQQM
MAoGCCsGAQUFBwMBMAsGA1UdDwQEAwIFoDANBgkqhkiG9w0BAQsFAAOCAQEAT+JL
CUWMXo8FE9i03A8Dh2MjuEME2qD0RWXVRJVqH2kk+wOvqXa4qeLgb15wgBRxKDMp
1aFZq/Ob7Q9jiIInWW8p/ZK6w3f0txA04qUy3Ilqo5HvlARaIkslhLANSB2s/05U
oaWqsvezEM26jCzZbNZpzbHL92Tx934ryjVU436zkQmVVbDjY9DwS6P77DazjBP3
44FZ4ml5wM7NB3fGhGXSaG98oox7HClHvnhrmUElSnh2ODs8SpYwIylbpjFYSh1w
rI97j2T+ZKG8uGfhWfs0/t4YGG3me2Wh9vRUrX+c9WHpgVBXG7oaygctczdvpHua
70aux7njdBAyDf7/xw==
-----END CERTIFICATE-----
